target datalayout = "e-m:e-p270:32:32-p271:32:32-p272:64:64-i64:64-i128:128-f80:128-n8:16:32:64-S128"
target triple = "x86_64-pc-linux-gnu"

%"class.std::vector" = type { %"struct.std::_Vector_base" }
%"struct.std::_Vector_base" = type { %"struct.std::_Vector_base<std::pair<double, open_spiel::TabularPolicy>, std::allocator<std::pair<double, open_spiel::TabularPolicy>>>::_Vector_impl" }
%"struct.std::_Vector_base<std::pair<double, open_spiel::TabularPolicy>, std::allocator<std::pair<double, open_spiel::TabularPolicy>>>::_Vector_impl" = type { %"struct.std::_Vector_base<std::pair<double, open_spiel::TabularPolicy>, std::allocator<std::pair<double, open_spiel::TabularPolicy>>>::_Vector_impl_data" }
%"struct.std::_Vector_base<std::pair<double, open_spiel::TabularPolicy>, std::allocator<std::pair<double, open_spiel::TabularPolicy>>>::_Vector_impl_data" = type { ptr, ptr, ptr }
%"class.std::__cxx11::basic_string" = type { %"struct.std::__cxx11::basic_string<char>::_Alloc_hider", i64, %union.anon }
%"struct.std::__cxx11::basic_string<char>::_Alloc_hider" = type { ptr }
%union.anon = type { i64, [8 x i8] }
%"class.std::vector.14" = type { %"struct.std::_Vector_base.15" }
%"struct.std::_Vector_base.15" = type { %"struct.std::_Vector_base<double, std::allocator<double>>::_Vector_impl" }
%"struct.std::_Vector_base<double, std::allocator<double>>::_Vector_impl" = type { %"struct.std::_Vector_base<double, std::allocator<double>>::_Vector_impl_data" }
%"struct.std::_Vector_base<double, std::allocator<double>>::_Vector_impl_data" = type { ptr, ptr, ptr }
%"class.std::shared_ptr" = type { %"class.std::__shared_ptr" }
%"class.std::__shared_ptr" = type { ptr, %"class.std::__shared_count" }
%"class.std::__shared_count" = type { ptr }
%"struct.open_spiel::GameType" = type <{ %"class.std::__cxx11::basic_string", %"class.std::__cxx11::basic_string", i32, i32, i32, i32, i32, i32, i32, i8, i8, i8, i8, %"class.std::map", i8, i8, [6 x i8] }>
%"class.std::map" = type { %"class.std::_Rb_tree" }
%"class.std::_Rb_tree" = type { %"struct.std::_Rb_tree<std::__cxx11::basic_string<char>, std::pair<const std::__cxx11::basic_string<char>, open_spiel::GameParameter>, std::_Select1st<std::pair<const std::__cxx11::basic_string<char>, open_spiel::GameParameter>>, std::less<std::__cxx11::basic_string<char>>>::_Rb_tree_impl" }
%"struct.std::_Rb_tree<std::__cxx11::basic_string<char>, std::pair<const std::__cxx11::basic_string<char>, open_spiel::GameParameter>, std::_Select1st<std::pair<const std::__cxx11::basic_string<char>, open_spiel::GameParameter>>, std::less<std::__cxx11::basic_string<char>>>::_Rb_tree_impl" = type { [8 x i8], %"struct.std::_Rb_tree_header" }
%"struct.std::_Rb_tree_header" = type { %"struct.std::_Rb_tree_node_base", i64 }
%"struct.std::_Rb_tree_node_base" = type { i32, ptr, ptr, ptr }
%"class.open_spiel::Game" = type { ptr, %"class.std::enable_shared_from_this", %"struct.open_spiel::GameType", %"class.std::map", %"class.std::map", %"class.absl::debian2::Mutex" }
%"class.std::enable_shared_from_this" = type { %"class.std::weak_ptr" }
%"class.std::weak_ptr" = type { %"class.std::__weak_ptr" }
%"class.std::__weak_ptr" = type { ptr, %"class.std::__weak_count" }
%"class.std::__weak_count" = type { ptr }
%"class.absl::debian2::Mutex" = type { %"struct.std::atomic" }
%"struct.std::atomic" = type { %"struct.std::__atomic_base" }
%"struct.std::__atomic_base" = type { i64 }

@.str.2 = private unnamed_addr constant [133 x i8] c"generated/home/dtcxzyw/WorkSpace/Projects/compilers/llvm-opt-benchmark/bench/openspiel/open_spiel/open_spiel/algorithms/corr_dist.cc\00", align 1
@.str.3 = private unnamed_addr constant [2 x i8] c":\00", align 1
@.str.4 = private unnamed_addr constant [2 x i8] c" \00", align 1
@.str.5 = private unnamed_addr constant [59 x i8] c"game.GetType().dynamics == GameType::Dynamics::kSequential\00", align 1
@.str.6 = private unnamed_addr constant [25 x i8] c"\0Agame.GetType().dynamics\00", align 1
@.str.7 = private unnamed_addr constant [4 x i8] c" = \00", align 1
@.str.8 = private unnamed_addr constant [37 x i8] c", GameType::Dynamics::kSequential = \00", align 1

; Function Attrs: mustprogress nounwind uwtable
define linkonce_odr noundef ptr @_ZNKSt12__shared_ptrIKN10open_spiel4GameELN9__gnu_cxx12_Lock_policyE2EE3getEv(ptr noundef nonnull align 8 dereferenceable(16) %0) #5 comdat align 2 {
  %2 = alloca ptr, align 8
  store ptr %0, ptr %2, align 8
  %3 = load ptr, ptr %2, align 8
  %4 = getelementptr inbounds nuw %"class.std::__shared_ptr", ptr %3, i32 0, i32 0
  %5 = load ptr, ptr %4, align 8
  ret ptr %5
}

; Function Attrs: mustprogress nounwind uwtable
define linkonce_odr noundef ptr @_ZNKSt19__shared_ptr_accessIKN10open_spiel4GameELN9__gnu_cxx12_Lock_policyE2ELb0ELb0EE6_M_getEv(ptr noundef nonnull align 1 dereferenceable(1) %0) #5 comdat align 2 {
  %2 = alloca ptr, align 8
  store ptr %0, ptr %2, align 8
  %3 = load ptr, ptr %2, align 8
  %4 = call noundef ptr @_ZNKSt12__shared_ptrIKN10open_spiel4GameELN9__gnu_cxx12_Lock_policyE2EE3getEv(ptr noundef nonnull align 8 dereferenceable(16) %3) #3
  ret ptr %4
}

; Function Attrs: mustprogress nounwind uwtable
define linkonce_odr noundef nonnull align 8 dereferenceable(280) ptr @_ZNKSt19__shared_ptr_accessIKN10open_spiel4GameELN9__gnu_cxx12_Lock_policyE2ELb0ELb0EEdeEv(ptr noundef nonnull align 1 dereferenceable(1) %0) #5 comdat align 2 {
  %2 = alloca ptr, align 8
  store ptr %0, ptr %2, align 8
  %3 = load ptr, ptr %2, align 8
  br label %4

4:                                                ; preds = %1
  br label %5

5:                                                ; preds = %4
  br label %6

6:                                                ; preds = %5
  %7 = call noundef ptr @_ZNKSt19__shared_ptr_accessIKN10open_spiel4GameELN9__gnu_cxx12_Lock_policyE2ELb0ELb0EE6_M_getEv(ptr noundef nonnull align 1 dereferenceable(1) %3) #3
  ret ptr %7
}

; Function Attrs: mustprogress nounwind uwtable
define linkonce_odr noundef nonnull align 8 dereferenceable(146) ptr @_ZNK10open_spiel4Game7GetTypeEv(ptr noundef nonnull align 8 dereferenceable(280) %0) #5 comdat align 2 {
  %2 = alloca ptr, align 8
  store ptr %0, ptr %2, align 8
  %3 = load ptr, ptr %2, align 8
  %4 = getelementptr inbounds nuw %"class.open_spiel::Game", ptr %3, i32 0, i32 2
  ret ptr %4
}

; Function Attrs: mustprogress uwtable
define void @_ZN10open_spiel10algorithms14ExpectedValuesERKNS_4GameERKSt6vectorINS0_29NormalFormJointPolicyWithProbESaIS5_EE(ptr dead_on_unwind noalias writable sret(%"class.std::vector.14") align 8 %0, ptr noundef nonnull align 8 dereferenceable(280) %1, ptr noundef nonnull align 8 dereferenceable(24) %2) #4 personality ptr @__gxx_personality_v0 {
  %4 = alloca ptr, align 8
  %5 = alloca ptr, align 8
  %6 = alloca ptr, align 8
  %7 = alloca %"class.std::shared_ptr", align 8
  %8 = alloca %"class.std::vector", align 8
  %9 = alloca ptr, align 8
  %10 = alloca i32, align 4
  %11 = alloca i32, align 4
  %12 = alloca i32, align 4
  %13 = alloca %"class.std::__cxx11::basic_string", align 8
  %14 = alloca i32, align 4
  %15 = alloca %"class.std::vector", align 8
  store ptr %0, ptr %4, align 8
  store ptr %1, ptr %5, align 8
  store ptr %2, ptr %6, align 8
  %16 = load ptr, ptr %5, align 8
  %17 = call noundef nonnull align 8 dereferenceable(146) ptr @_ZNK10open_spiel4Game7GetTypeEv(ptr noundef nonnull align 8 dereferenceable(280) %16)
  %18 = getelementptr inbounds nuw %"struct.open_spiel::GameType", ptr %17, i32 0, i32 4
  %19 = load i32, ptr %18, align 8
  %20 = icmp eq i32 %19, 0
  br i1 %20, label %21, label %37

21:                                               ; preds = %3
  %22 = load ptr, ptr %5, align 8
  call void @_ZN10open_spiel18ConvertToTurnBasedERKNS_4GameE(ptr dead_on_unwind writable sret(%"class.std::shared_ptr") align 8 %7, ptr noundef nonnull align 8 dereferenceable(280) %22)
  %23 = call noundef nonnull align 8 dereferenceable(280) ptr @_ZNKSt19__shared_ptr_accessIKN10open_spiel4GameELN9__gnu_cxx12_Lock_policyE2ELb0ELb0EEdeEv(ptr noundef nonnull align 1 dereferenceable(1) %7) #3
  %24 = load ptr, ptr %6, align 8
  invoke void @_ZN10open_spiel10algorithms12_GLOBAL__N_124ConvertCorrelationDeviceERKNS_4GameERKSt6vectorINS0_29NormalFormJointPolicyWithProbESaIS6_EE(ptr dead_on_unwind writable sret(%"class.std::vector") align 8 %8, ptr noundef nonnull align 8 dereferenceable(280) %23, ptr noundef nonnull align 8 dereferenceable(24) %24)
          to label %25 unwind label %28

25:                                               ; preds = %21
  %26 = call noundef nonnull align 8 dereferenceable(280) ptr @_ZNKSt19__shared_ptr_accessIKN10open_spiel4GameELN9__gnu_cxx12_Lock_policyE2ELb0ELb0EEdeEv(ptr noundef nonnull align 1 dereferenceable(1) %7) #3
  invoke void @_ZN10open_spiel10algorithms14ExpectedValuesERKNS_4GameERKSt6vectorISt4pairIdNS_13TabularPolicyEESaIS7_EE(ptr dead_on_unwind writable sret(%"class.std::vector.14") align 8 %0, ptr noundef nonnull align 8 dereferenceable(280) %26, ptr noundef nonnull align 8 dereferenceable(24) %8)
          to label %27 unwind label %32

27:                                               ; preds = %25
  call void @_ZNSt6vectorISt4pairIdN10open_spiel13TabularPolicyEESaIS3_EED2Ev(ptr noundef nonnull align 8 dereferenceable(24) %8) #3
  call void @_ZNSt10shared_ptrIKN10open_spiel4GameEED2Ev(ptr noundef nonnull align 8 dereferenceable(16) %7) #3
  br label %62

28:                                               ; preds = %21
  %29 = landingpad { ptr, i32 }
          cleanup
  %30 = extractvalue { ptr, i32 } %29, 0
  store ptr %30, ptr %9, align 8
  %31 = extractvalue { ptr, i32 } %29, 1
  store i32 %31, ptr %10, align 4
  br label %36

32:                                               ; preds = %25
  %33 = landingpad { ptr, i32 }
          cleanup
  %34 = extractvalue { ptr, i32 } %33, 0
  store ptr %34, ptr %9, align 8
  %35 = extractvalue { ptr, i32 } %33, 1
  store i32 %35, ptr %10, align 4
  call void @_ZNSt6vectorISt4pairIdN10open_spiel13TabularPolicyEESaIS3_EED2Ev(ptr noundef nonnull align 8 dereferenceable(24) %8) #3
  br label %36

36:                                               ; preds = %32, %28
  call void @_ZNSt10shared_ptrIKN10open_spiel4GameEED2Ev(ptr noundef nonnull align 8 dereferenceable(16) %7) #3
  br label %63

37:                                               ; preds = %3
  br label %38

38:                                               ; preds = %37
  %39 = load ptr, ptr %5, align 8
  %40 = call noundef nonnull align 8 dereferenceable(146) ptr @_ZNK10open_spiel4Game7GetTypeEv(ptr noundef nonnull align 8 dereferenceable(280) %39)
  %41 = getelementptr inbounds nuw %"struct.open_spiel::GameType", ptr %40, i32 0, i32 2
  %42 = load i32, ptr %41, align 8
  store i32 %42, ptr %11, align 4
  store i32 1, ptr %12, align 4
  %43 = load i32, ptr %11, align 4
  %44 = load i32, ptr %12, align 4
  %45 = icmp eq i32 %43, %44
  br i1 %45, label %52, label %46

46:                                               ; preds = %38
  store i32 149, ptr %14, align 4
  call void @_ZN10open_spiel8internal11SpielStrCatIJRA133_KcRA2_S2_iS6_RA59_S2_RA25_S2_RA4_S2_RNS_8GameType8DynamicsERA37_S2_SF_EEENSt7__cxx1112basic_stringIcSt11char_traitsIcESaIcEEEDpOT_(ptr dead_on_unwind writable sret(%"class.std::__cxx11::basic_string") align 8 %13, ptr noundef nonnull align 1 dereferenceable(133) @.str.2, ptr noundef nonnull align 1 dereferenceable(2) @.str.3, ptr noundef nonnull align 4 dereferenceable(4) %14, ptr noundef nonnull align 1 dereferenceable(2) @.str.4, ptr noundef nonnull align 1 dereferenceable(59) @.str.5, ptr noundef nonnull align 1 dereferenceable(25) @.str.6, ptr noundef nonnull align 1 dereferenceable(4) @.str.7, ptr noundef nonnull align 4 dereferenceable(4) %11, ptr noundef nonnull align 1 dereferenceable(37) @.str.8, ptr noundef nonnull align 4 dereferenceable(4) %12)
  invoke void @_ZN10open_spiel15SpielFatalErrorERKNSt7__cxx1112basic_stringIcSt11char_traitsIcESaIcEEE(ptr noundef nonnull align 8 dereferenceable(32) %13) #20
          to label %47 unwind label %48

47:                                               ; preds = %46
  unreachable

48:                                               ; preds = %46
  %49 = landingpad { ptr, i32 }
          cleanup
  %50 = extractvalue { ptr, i32 } %49, 0
  store ptr %50, ptr %9, align 8
  %51 = extractvalue { ptr, i32 } %49, 1
  store i32 %51, ptr %10, align 4
  call void @_ZNSt7__cxx1112basic_stringIcSt11char_traitsIcESaIcEED1Ev(ptr noundef nonnull align 8 dereferenceable(32) %13) #3
  br label %63

52:                                               ; preds = %38
  br label %53

53:                                               ; preds = %52
  %54 = load ptr, ptr %5, align 8
  %55 = load ptr, ptr %6, align 8
  call void @_ZN10open_spiel10algorithms12_GLOBAL__N_124ConvertCorrelationDeviceERKNS_4GameERKSt6vectorINS0_29NormalFormJointPolicyWithProbESaIS6_EE(ptr dead_on_unwind writable sret(%"class.std::vector") align 8 %15, ptr noundef nonnull align 8 dereferenceable(280) %54, ptr noundef nonnull align 8 dereferenceable(24) %55)
  %56 = load ptr, ptr %5, align 8
  invoke void @_ZN10open_spiel10algorithms14ExpectedValuesERKNS_4GameERKSt6vectorISt4pairIdNS_13TabularPolicyEESaIS7_EE(ptr dead_on_unwind writable sret(%"class.std::vector.14") align 8 %0, ptr noundef nonnull align 8 dereferenceable(280) %56, ptr noundef nonnull align 8 dereferenceable(24) %15)
          to label %57 unwind label %58

57:                                               ; preds = %53
  call void @_ZNSt6vectorISt4pairIdN10open_spiel13TabularPolicyEESaIS3_EED2Ev(ptr noundef nonnull align 8 dereferenceable(24) %15) #3
  br label %62

58:                                               ; preds = %53
  %59 = landingpad { ptr, i32 }
          cleanup
  %60 = extractvalue { ptr, i32 } %59, 0
  store ptr %60, ptr %9, align 8
  %61 = extractvalue { ptr, i32 } %59, 1
  store i32 %61, ptr %10, align 4
  call void @_ZNSt6vectorISt4pairIdN10open_spiel13TabularPolicyEESaIS3_EED2Ev(ptr noundef nonnull align 8 dereferenceable(24) %15) #3
  br label %63

62:                                               ; preds = %57, %27
  ret void

63:                                               ; preds = %58, %48, %36
  %64 = load ptr, ptr %9, align 8
  %65 = load i32, ptr %10, align 4
  %66 = insertvalue { ptr, i32 } poison, ptr %64, 0
  %67 = insertvalue { ptr, i32 } %66, i32 %65, 1
  resume { ptr, i32 } %67
}