; Function Attrs: mustprogress uwtable
define void @_ZN10open_spiel10algorithms14ExpectedValuesERKNS_4GameERKSt6vectorINS0_29NormalFormJointPolicyWithProbESaIS5_EE(ptr dead_on_unwind noalias writable sret(%"class.std::vector.14") align 8 captures(none) %0, ptr noundef nonnull align 8 dereferenceable(280) %1, ptr noundef nonnull readonly align 8 captures(none) dereferenceable(24) %2) local_unnamed_addr #3 personality ptr @__gxx_personality_v0 {
  %4 = alloca %"class.std::shared_ptr", align 8
  %5 = alloca %"class.std::vector", align 8
  %6 = alloca i32, align 4
  %7 = alloca i32, align 4
  %8 = alloca %"class.std::__cxx11::basic_string", align 8
  %9 = alloca i32, align 4
  %10 = alloca %"class.std::vector", align 8
  %11 = getelementptr inbounds nuw i8, ptr %1, i64 96
  %12 = load i32, ptr %11, align 8
  %13 = icmp eq i32 %12, 0
  br i1 %13, label %14, label %60

14:                                               ; preds = %3
  call void @_ZN10open_spiel18ConvertToTurnBasedERKNS_4GameE(ptr dead_on_unwind nonnull writable sret(%"class.std::shared_ptr") align 8 %4, ptr noundef nonnull align 8 dereferenceable(280) %1)
  %15 = load ptr, ptr %4, align 8
  invoke fastcc void @_ZN10open_spiel10algorithms12_GLOBAL__N_124ConvertCorrelationDeviceERKNS_4GameERKSt6vectorINS0_29NormalFormJointPolicyWithProbESaIS6_EE(ptr dead_on_unwind noalias writable align 8 %5, ptr noundef nonnull align 8 dereferenceable(280) %15, ptr noundef nonnull align 8 dereferenceable(24) %2)
          to label %16 unwind label %55

16:                                               ; preds = %14
  %17 = load ptr, ptr %4, align 8
  invoke void @_ZN10open_spiel10algorithms14ExpectedValuesERKNS_4GameERKSt6vectorISt4pairIdNS_13TabularPolicyEESaIS7_EE(ptr dead_on_unwind writable sret(%"class.std::vector.14") align 8 %0, ptr noundef nonnull align 8 dereferenceable(280) %17, ptr noundef nonnull align 8 dereferenceable(24) %5)
          to label %18 unwind label %57

18:                                               ; preds = %16
  call void @_ZNSt6vectorISt4pairIdN10open_spiel13TabularPolicyEESaIS3_EED2Ev(ptr noundef nonnull align 8 dereferenceable(24) %5) #25
  %19 = getelementptr inbounds nuw i8, ptr %4, i64 8
  %20 = load ptr, ptr %19, align 8
  %.not.i.i.i = icmp eq ptr %20, null
  br i1 %.not.i.i.i, label %_ZNSt10shared_ptrIKN10open_spiel4GameEED2Ev.exit, label %21

21:                                               ; preds = %18
  %22 = getelementptr inbounds nuw i8, ptr %20, i64 8
  %23 = load atomic i64, ptr %22 acquire, align 8
  %24 = icmp eq i64 %23, 4294967297
  %25 = trunc i64 %23 to i32
  br i1 %24, label %26, label %31

26:                                               ; preds = %21
  store i32 0, ptr %22, align 8
  %27 = getelementptr inbounds nuw i8, ptr %20, i64 12
  store i32 0, ptr %27, align 4
  %28 = load ptr, ptr %20, align 8
  %29 = getelementptr inbounds nuw i8, ptr %28, i64 16
  %30 = load ptr, ptr %29, align 8
  call void %30(ptr noundef nonnull align 8 dereferenceable(16) %20) #25
  br label %_ZNSt16_Sp_counted_baseILN9__gnu_cxx12_Lock_policyE2EE24_M_release_last_use_coldEv.exit.sink.split.i.i.i.i

31:                                               ; preds = %21
  %32 = load i8, ptr @__libc_single_threaded, align 1
  %.not.i.i.i.i = icmp eq i8 %32, 0
  br i1 %.not.i.i.i.i, label %35, label %33

33:                                               ; preds = %31
  %34 = add nsw i32 %25, -1
  store i32 %34, ptr %22, align 4
  br label %37

35:                                               ; preds = %31
  %36 = atomicrmw volatile add ptr %22, i32 -1 acq_rel, align 4
  br label %37

37:                                               ; preds = %35, %33
  %.0.i.i.i.i = phi i32 [ %25, %33 ], [ %36, %35 ]
  %38 = icmp eq i32 %.0.i.i.i.i, 1
  br i1 %38, label %39, label %_ZNSt10shared_ptrIKN10open_spiel4GameEED2Ev.exit

39:                                               ; preds = %37
  %40 = load ptr, ptr %20, align 8
  %41 = getelementptr inbounds nuw i8, ptr %40, i64 16
  %42 = load ptr, ptr %41, align 8
  call void %42(ptr noundef nonnull align 8 dereferenceable(16) %20) #25
  %43 = getelementptr inbounds nuw i8, ptr %20, i64 12
  %44 = load i8, ptr @__libc_single_threaded, align 1
  %.not.i.i.i.i.i.i = icmp eq i8 %44, 0
  br i1 %.not.i.i.i.i.i.i, label %48, label %45

45:                                               ; preds = %39
  %46 = load i32, ptr %43, align 4
  %47 = add nsw i32 %46, -1
  store i32 %47, ptr %43, align 4
  br label %50

48:                                               ; preds = %39
  %49 = atomicrmw volatile add ptr %43, i32 -1 acq_rel, align 4
  br label %50

50:                                               ; preds = %48, %45
  %.0.i.i.i.i.i.i = phi i32 [ %46, %45 ], [ %49, %48 ]
  %51 = icmp eq i32 %.0.i.i.i.i.i.i, 1
  br i1 %51, label %_ZNSt16_Sp_counted_baseILN9__gnu_cxx12_Lock_policyE2EE24_M_release_last_use_coldEv.exit.sink.split.i.i.i.i, label %_ZNSt10shared_ptrIKN10open_spiel4GameEED2Ev.exit

_ZNSt16_Sp_counted_baseILN9__gnu_cxx12_Lock_policyE2EE24_M_release_last_use_coldEv.exit.sink.split.i.i.i.i: ; preds = %50, %26
  %52 = load ptr, ptr %20, align 8
  %53 = getelementptr inbounds nuw i8, ptr %52, i64 24
  %54 = load ptr, ptr %53, align 8
  call void %54(ptr noundef nonnull align 8 dereferenceable(16) %20) #25
  br label %_ZNSt10shared_ptrIKN10open_spiel4GameEED2Ev.exit

55:                                               ; preds = %14
  %56 = landingpad { ptr, i32 }
          cleanup
  br label %59

57:                                               ; preds = %16
  %58 = landingpad { ptr, i32 }
          cleanup
  call void @_ZNSt6vectorISt4pairIdN10open_spiel13TabularPolicyEESaIS3_EED2Ev(ptr noundef nonnull align 8 dereferenceable(24) %5) #25
  br label %59

59:                                               ; preds = %57, %55
  %.pn = phi { ptr, i32 } [ %58, %57 ], [ %56, %55 ]
  call void @_ZNSt10shared_ptrIKN10open_spiel4GameEED2Ev(ptr noundef nonnull align 8 dereferenceable(16) %4) #25
  br label %72

60:                                               ; preds = %3
  %61 = getelementptr inbounds nuw i8, ptr %1, i64 88
  %62 = load i32, ptr %61, align 8
  store i32 %62, ptr %6, align 4
  store i32 1, ptr %7, align 4
  %63 = icmp eq i32 %62, 1
  br i1 %63, label %68, label %64

64:                                               ; preds = %60
  store i32 149, ptr %9, align 4
  call void @_ZN10open_spiel8internal11SpielStrCatIJRA133_KcRA2_S2_iS6_RA59_S2_RA25_S2_RA4_S2_RNS_8GameType8DynamicsERA37_S2_SF_EEENSt7__cxx1112basic_stringIcSt11char_traitsIcESaIcEEEDpOT_(ptr dead_on_unwind nonnull writable sret(%"class.std::__cxx11::basic_string") align 8 %8, ptr noundef nonnull align 1 dereferenceable(133) @.str.2, ptr noundef nonnull align 1 dereferenceable(2) @.str.3, ptr noundef nonnull align 4 dereferenceable(4) %9, ptr noundef nonnull align 1 dereferenceable(2) @.str.4, ptr noundef nonnull align 1 dereferenceable(59) @.str.5, ptr noundef nonnull align 1 dereferenceable(25) @.str.6, ptr noundef nonnull align 1 dereferenceable(4) @.str.7, ptr noundef nonnull align 4 dereferenceable(4) %6, ptr noundef nonnull align 1 dereferenceable(37) @.str.8, ptr noundef nonnull align 4 dereferenceable(4) %7)
  invoke void @_ZN10open_spiel15SpielFatalErrorERKNSt7__cxx1112basic_stringIcSt11char_traitsIcESaIcEEE(ptr noundef nonnull align 8 dereferenceable(32) %8) #26
          to label %65 unwind label %66

65:                                               ; preds = %64
  unreachable

66:                                               ; preds = %64
  %67 = landingpad { ptr, i32 }
          cleanup
  call void @_ZNSt7__cxx1112basic_stringIcSt11char_traitsIcESaIcEED1Ev(ptr noundef nonnull align 8 dereferenceable(32) %8) #25
  br label %72

68:                                               ; preds = %60
  call fastcc void @_ZN10open_spiel10algorithms12_GLOBAL__N_124ConvertCorrelationDeviceERKNS_4GameERKSt6vectorINS0_29NormalFormJointPolicyWithProbESaIS6_EE(ptr dead_on_unwind noalias writable align 8 %10, ptr noundef nonnull align 8 dereferenceable(280) %1, ptr noundef nonnull align 8 dereferenceable(24) %2)
  invoke void @_ZN10open_spiel10algorithms14ExpectedValuesERKNS_4GameERKSt6vectorISt4pairIdNS_13TabularPolicyEESaIS7_EE(ptr dead_on_unwind writable sret(%"class.std::vector.14") align 8 %0, ptr noundef nonnull align 8 dereferenceable(280) %1, ptr noundef nonnull align 8 dereferenceable(24) %10)
          to label %69 unwind label %70

69:                                               ; preds = %68
  call void @_ZNSt6vectorISt4pairIdN10open_spiel13TabularPolicyEESaIS3_EED2Ev(ptr noundef nonnull align 8 dereferenceable(24) %10) #25
  br label %_ZNSt10shared_ptrIKN10open_spiel4GameEED2Ev.exit

70:                                               ; preds = %68
  %71 = landingpad { ptr, i32 }
          cleanup
  call void @_ZNSt6vectorISt4pairIdN10open_spiel13TabularPolicyEESaIS3_EED2Ev(ptr noundef nonnull align 8 dereferenceable(24) %10) #25
  br label %72

_ZNSt10shared_ptrIKN10open_spiel4GameEED2Ev.exit: ; preds = %_ZNSt16_Sp_counted_baseILN9__gnu_cxx12_Lock_policyE2EE24_M_release_last_use_coldEv.exit.sink.split.i.i.i.i, %50, %37, %18, %69
  ret void

72:                                               ; preds = %70, %66, %59
  %.pn.pn = phi { ptr, i32 } [ %.pn, %59 ], [ %71, %70 ], [ %67, %66 ]
  resume { ptr, i32 } %.pn.pn
}